; Function Attrs: mustprogress nounwind uwtable
define hidden void @_ZN12XNMethodDataD2Ev(ptr noundef nonnull align 8 dereferenceable(120) %0) unnamed_addr #0 align 2 {
  %2 = getelementptr inbounds i8, ptr %0, i64 112
  %3 = load volatile ptr, ptr %2, align 8
  tail call void @_Z8FreeHeapPv(ptr noundef %3) #8
  %4 = getelementptr inbounds i8, ptr %0, i64 56
  tail call void @_ZN13PlatformMutexD1Ev(ptr noundef nonnull align 8 dereferenceable(40) %4) #8
  tail call void @_ZN13PlatformMutexD1Ev(ptr noundef nonnull align 8 dereferenceable(40) %0) #8
  ret void
}